target datalayout = "e-m:e-p270:32:32-p271:32:32-p272:64:64-i64:64-i128:128-f80:128-n8:16:32:64-S128"
target triple = "x86_64-unknown-linux-gnu"

%"class.zmq::ws_engine_t" = type { %"class.zmq::stream_engine_base_t.base", i8, %"class.zmq::ws_address_t", i32, i32, [8192 x i8], [8192 x i8], [1025 x i8], i32, [2049 x i8], i32, i8, i8, [256 x i8], [2049 x i8], [2049 x i8], i32, %"class.zmq::msg_t" }
%"class.zmq::stream_engine_base_t.base" = type <{ %"class.zmq::io_object_t", %"struct.zmq::i_engine", %"struct.zmq::options_t", ptr, i64, ptr, ptr, i64, ptr, ptr, { i64, i64 }, { i64, i64 }, ptr, i8, i8, [6 x i8], %"struct.zmq::endpoint_uri_pair_t", i8, i8, i8, i8, [4 x i8], %"class.std::__cxx11::basic_string", i32, [4 x i8], ptr, i8, i8, [6 x i8], %"class.zmq::msg_t", i8, [7 x i8], ptr, ptr, i8 }>
%"class.zmq::io_object_t" = type { %"struct.zmq::i_poll_events", ptr }
%"struct.zmq::i_poll_events" = type { ptr }
%"struct.zmq::i_engine" = type { ptr }
%"struct.zmq::options_t" = type { i32, i32, i64, i8, [256 x i8], i32, i32, i32, i32, i32, i32, i32, i32, i8, %"struct.zmq::atomic_value_t", i32, i32, i32, i32, i32, i32, i64, i32, i32, i8, i32, i8, i8, i8, i8, i8, %"class.std::__cxx11::basic_string", %"class.std::__cxx11::basic_string", %"class.std::__cxx11::basic_string", i32, i32, i32, i32, %"class.std::vector", %"class.std::set", %"class.std::set", %"class.std::set.6", i32, i32, %"class.std::__cxx11::basic_string", %"class.std::__cxx11::basic_string", %"class.std::__cxx11::basic_string", [32 x i8], [32 x i8], [32 x i8], %"class.std::__cxx11::basic_string", %"class.std::__cxx11::basic_string", i32, i32, i8, i32, i8, i32, i8, i16, i32, i32, i32, %"class.std::__cxx11::basic_string", i8, i8, i8, i32, i32, i8, i32, %"class.std::map", i32, %"class.std::__cxx11::basic_string", %"class.std::__cxx11::basic_string", %"class.std::__cxx11::basic_string", %"class.std::__cxx11::basic_string", i8, %"class.std::vector.21", i8, %"class.std::vector.21", i8, %"class.std::vector.21", i8, i32, i8, i32, i32, i32, i32, i32, i8, i32 }
%"struct.zmq::atomic_value_t" = type { %"struct.std::atomic" }
%"struct.std::atomic" = type { %"struct.std::__atomic_base" }
%"struct.std::__atomic_base" = type { i32 }
%"class.std::vector" = type { %"struct.std::_Vector_base" }
%"struct.std::_Vector_base" = type { %"struct.std::_Vector_base<zmq::tcp_address_mask_t, std::allocator<zmq::tcp_address_mask_t>>::_Vector_impl" }
%"struct.std::_Vector_base<zmq::tcp_address_mask_t, std::allocator<zmq::tcp_address_mask_t>>::_Vector_impl" = type { %"struct.std::_Vector_base<zmq::tcp_address_mask_t, std::allocator<zmq::tcp_address_mask_t>>::_Vector_impl_data" }
%"struct.std::_Vector_base<zmq::tcp_address_mask_t, std::allocator<zmq::tcp_address_mask_t>>::_Vector_impl_data" = type { ptr, ptr, ptr }
%"class.std::set" = type { %"class.std::_Rb_tree" }
%"class.std::_Rb_tree" = type { %"struct.std::_Rb_tree<unsigned int, unsigned int, std::_Identity<unsigned int>, std::less<unsigned int>>::_Rb_tree_impl" }
%"struct.std::_Rb_tree<unsigned int, unsigned int, std::_Identity<unsigned int>, std::less<unsigned int>>::_Rb_tree_impl" = type { %"struct.std::_Rb_tree_key_compare", %"struct.std::_Rb_tree_header" }
%"struct.std::_Rb_tree_key_compare" = type { %"struct.std::less" }
%"struct.std::less" = type { i8 }
%"struct.std::_Rb_tree_header" = type { %"struct.std::_Rb_tree_node_base", i64 }
%"struct.std::_Rb_tree_node_base" = type { i32, ptr, ptr, ptr }
%"class.std::set.6" = type { %"class.std::_Rb_tree.7" }
%"class.std::_Rb_tree.7" = type { %"struct.std::_Rb_tree<int, int, std::_Identity<int>, std::less<int>>::_Rb_tree_impl" }
%"struct.std::_Rb_tree<int, int, std::_Identity<int>, std::less<int>>::_Rb_tree_impl" = type { %"struct.std::_Rb_tree_key_compare.11", %"struct.std::_Rb_tree_header" }
%"struct.std::_Rb_tree_key_compare.11" = type { %"struct.std::less.12" }
%"struct.std::less.12" = type { i8 }
%"class.std::map" = type { %"class.std::_Rb_tree.14" }
%"class.std::_Rb_tree.14" = type { %"struct.std::_Rb_tree<std::__cxx11::basic_string<char>, std::pair<const std::__cxx11::basic_string<char>, std::__cxx11::basic_string<char>>, std::_Select1st<std::pair<const std::__cxx11::basic_string<char>, std::__cxx11::basic_string<char>>>, std::less<std::__cxx11::basic_string<char>>>::_Rb_tree_impl" }
%"struct.std::_Rb_tree<std::__cxx11::basic_string<char>, std::pair<const std::__cxx11::basic_string<char>, std::__cxx11::basic_string<char>>, std::_Select1st<std::pair<const std::__cxx11::basic_string<char>, std::__cxx11::basic_string<char>>>, std::less<std::__cxx11::basic_string<char>>>::_Rb_tree_impl" = type { %"struct.std::_Rb_tree_key_compare.18", %"struct.std::_Rb_tree_header" }
%"struct.std::_Rb_tree_key_compare.18" = type { %"struct.std::less.19" }
%"struct.std::less.19" = type { i8 }
%"class.std::vector.21" = type { %"struct.std::_Vector_base.22" }
%"struct.std::_Vector_base.22" = type { %"struct.std::_Vector_base<unsigned char, std::allocator<unsigned char>>::_Vector_impl" }
%"struct.std::_Vector_base<unsigned char, std::allocator<unsigned char>>::_Vector_impl" = type { %"struct.std::_Vector_base<unsigned char, std::allocator<unsigned char>>::_Vector_impl_data" }
%"struct.std::_Vector_base<unsigned char, std::allocator<unsigned char>>::_Vector_impl_data" = type { ptr, ptr, ptr }
%"struct.zmq::endpoint_uri_pair_t" = type <{ %"class.std::__cxx11::basic_string", %"class.std::__cxx11::basic_string", i32, [4 x i8] }>
%"class.std::__cxx11::basic_string" = type { %"struct.std::__cxx11::basic_string<char>::_Alloc_hider", i64, %union.anon }
%"struct.std::__cxx11::basic_string<char>::_Alloc_hider" = type { ptr }
%union.anon = type { i64, [8 x i8] }
%"class.zmq::ws_address_t" = type { %"union.zmq::ip_addr_t", %"class.std::__cxx11::basic_string", %"class.std::__cxx11::basic_string" }
%"union.zmq::ip_addr_t" = type { %struct.sockaddr_in6 }
%struct.sockaddr_in6 = type { i16, i16, i32, %struct.in6_addr, i32 }
%struct.in6_addr = type { %union.anon.34 }
%union.anon.34 = type { [4 x i32] }
%"class.zmq::msg_t" = type { %union.anon.26 }
%union.anon.26 = type { %struct.anon }
%struct.anon = type { ptr, [34 x i8], i8, i8, i32, %"union.zmq::msg_t::group_t" }
%"union.zmq::msg_t::group_t" = type { %struct.anon.28 }
%struct.anon.28 = type { i8, ptr }
%"class.zmq::stream_engine_base_t" = type <{ %"class.zmq::io_object_t", %"struct.zmq::i_engine", %"struct.zmq::options_t", ptr, i64, ptr, ptr, i64, ptr, ptr, { i64, i64 }, { i64, i64 }, ptr, i8, i8, [6 x i8], %"struct.zmq::endpoint_uri_pair_t", i8, i8, i8, i8, [4 x i8], %"class.std::__cxx11::basic_string", i32, [4 x i8], ptr, i8, i8, [6 x i8], %"class.zmq::msg_t", i8, [7 x i8], ptr, ptr, i8, [7 x i8] }>

; Function Attrs: mustprogress nounwind uwtable
define linkonce_odr void @_ZN3zmq12ws_address_tD2Ev(ptr noundef nonnull align 8 dereferenceable(96) %this) unnamed_addr #3 comdat align 2 {
entry:
  %this.addr = alloca ptr, align 8
  store ptr %this, ptr %this.addr, align 8
  %this1 = load ptr, ptr %this.addr, align 8
  %_path = getelementptr inbounds %"class.zmq::ws_address_t", ptr %this1, i32 0, i32 2
  call void @_ZNSt7__cxx1112basic_stringIcSt11char_traitsIcESaIcEED1Ev(ptr noundef nonnull align 8 dereferenceable(32) %_path) #13
  %_host = getelementptr inbounds %"class.zmq::ws_address_t", ptr %this1, i32 0, i32 1
  call void @_ZNSt7__cxx1112basic_stringIcSt11char_traitsIcESaIcEED1Ev(ptr noundef nonnull align 8 dereferenceable(32) %_host) #13
  ret void
}

; Function Attrs: mustprogress uwtable
define linkonce_odr void @_ZN3zmq12ws_address_tC2ERKS0_(ptr noundef nonnull align 8 dereferenceable(96) %this, ptr noundef nonnull align 8 dereferenceable(96) %0) unnamed_addr #0 comdat align 2 personality ptr @__gxx_personality_v0 {
entry:
  %this.addr = alloca ptr, align 8
  %.addr = alloca ptr, align 8
  %exn.slot = alloca ptr, align 8
  %ehselector.slot = alloca i32, align 4
  store ptr %this, ptr %this.addr, align 8
  store ptr %0, ptr %.addr, align 8
  %this1 = load ptr, ptr %this.addr, align 8
  %_address = getelementptr inbounds %"class.zmq::ws_address_t", ptr %this1, i32 0, i32 0
  %1 = load ptr, ptr %.addr, align 8
  %_address2 = getelementptr inbounds %"class.zmq::ws_address_t", ptr %1, i32 0, i32 0
  call void @llvm.memcpy.p0.p0.i64(ptr align 8 %_address, ptr align 8 %_address2, i64 28, i1 false)
  %_host = getelementptr inbounds %"class.zmq::ws_address_t", ptr %this1, i32 0, i32 1
  %2 = load ptr, ptr %.addr, align 8
  %_host3 = getelementptr inbounds %"class.zmq::ws_address_t", ptr %2, i32 0, i32 1
  call void @_ZNSt7__cxx1112basic_stringIcSt11char_traitsIcESaIcEEC1ERKS4_(ptr noundef nonnull align 8 dereferenceable(32) %_host, ptr noundef nonnull align 8 dereferenceable(32) %_host3)
  %_path = getelementptr inbounds %"class.zmq::ws_address_t", ptr %this1, i32 0, i32 2
  %3 = load ptr, ptr %.addr, align 8
  %_path4 = getelementptr inbounds %"class.zmq::ws_address_t", ptr %3, i32 0, i32 2
  invoke void @_ZNSt7__cxx1112basic_stringIcSt11char_traitsIcESaIcEEC1ERKS4_(ptr noundef nonnull align 8 dereferenceable(32) %_path, ptr noundef nonnull align 8 dereferenceable(32) %_path4)
          to label %invoke.cont unwind label %lpad

invoke.cont:                                      ; preds = %entry
  ret void

lpad:                                             ; preds = %entry
  %4 = landingpad { ptr, i32 }
          cleanup
  %5 = extractvalue { ptr, i32 } %4, 0
  store ptr %5, ptr %exn.slot, align 8
  %6 = extractvalue { ptr, i32 } %4, 1
  store i32 %6, ptr %ehselector.slot, align 4
  call void @_ZNSt7__cxx1112basic_stringIcSt11char_traitsIcESaIcEED1Ev(ptr noundef nonnull align 8 dereferenceable(32) %_host) #13
  br label %eh.resume

eh.resume:                                        ; preds = %lpad
  %exn = load ptr, ptr %exn.slot, align 8
  %sel = load i32, ptr %ehselector.slot, align 4
  %lpad.val = insertvalue { ptr, i32 } poison, ptr %exn, 0
  %lpad.val5 = insertvalue { ptr, i32 } %lpad.val, i32 %sel, 1
  resume { ptr, i32 } %lpad.val5
}

; Function Attrs: mustprogress uwtable
define void @_ZN3zmq11ws_engine_tC2EiRKNS_9options_tERKNS_19endpoint_uri_pair_tERKNS_12ws_address_tEb(ptr noundef nonnull align 8 dereferenceable(25696) %this, i32 noundef %fd_, ptr noundef nonnull align 8 dereferenceable(1336) %options_, ptr noundef nonnull align 8 dereferenceable(68) %endpoint_uri_pair_, ptr noundef nonnull align 8 dereferenceable(96) %address_, i1 noundef zeroext %client_) unnamed_addr #0 align 2 personality ptr @__gxx_personality_v0 {
entry:
  %this.addr = alloca ptr, align 8
  %fd_.addr = alloca i32, align 4
  %options_.addr = alloca ptr, align 8
  %endpoint_uri_pair_.addr = alloca ptr, align 8
  %address_.addr = alloca ptr, align 8
  %client_.addr = alloca i8, align 1
  %exn.slot = alloca ptr, align 8
  %ehselector.slot = alloca i32, align 4
  store ptr %this, ptr %this.addr, align 8
  store i32 %fd_, ptr %fd_.addr, align 4
  store ptr %options_, ptr %options_.addr, align 8
  store ptr %endpoint_uri_pair_, ptr %endpoint_uri_pair_.addr, align 8
  store ptr %address_, ptr %address_.addr, align 8
  %frombool = zext i1 %client_ to i8
  store i8 %frombool, ptr %client_.addr, align 1
  %this1 = load ptr, ptr %this.addr, align 8
  %0 = load i32, ptr %fd_.addr, align 4
  %1 = load ptr, ptr %options_.addr, align 8
  %2 = load ptr, ptr %endpoint_uri_pair_.addr, align 8
  call void @_ZN3zmq20stream_engine_base_tC2EiRKNS_9options_tERKNS_19endpoint_uri_pair_tEb(ptr noundef nonnull align 8 dereferenceable(1689) %this1, i32 noundef %0, ptr noundef nonnull align 8 dereferenceable(1336) %1, ptr noundef nonnull align 8 dereferenceable(68) %2, i1 noundef zeroext true)
  store ptr getelementptr inbounds ({ [24 x ptr], [11 x ptr] }, ptr @_ZTVN3zmq11ws_engine_tE, i32 0, i32 0, i32 2), ptr %this1, align 8
  %add.ptr = getelementptr inbounds i8, ptr %this1, i64 16
  store ptr getelementptr inbounds ({ [24 x ptr], [11 x ptr] }, ptr @_ZTVN3zmq11ws_engine_tE, i32 0, i32 1, i32 2), ptr %add.ptr, align 8
  %_client = getelementptr inbounds %"class.zmq::ws_engine_t", ptr %this1, i32 0, i32 1
  %3 = load i8, ptr %client_.addr, align 1
  %tobool = trunc i8 %3 to i1
  %frombool2 = zext i1 %tobool to i8
  store i8 %frombool2, ptr %_client, align 1
  %_address = getelementptr inbounds %"class.zmq::ws_engine_t", ptr %this1, i32 0, i32 2
  %4 = load ptr, ptr %address_.addr, align 8
  invoke void @_ZN3zmq12ws_address_tC2ERKS0_(ptr noundef nonnull align 8 dereferenceable(96) %_address, ptr noundef nonnull align 8 dereferenceable(96) %4)
          to label %invoke.cont unwind label %lpad

invoke.cont:                                      ; preds = %entry
  %_client_handshake_state = getelementptr inbounds %"class.zmq::ws_engine_t", ptr %this1, i32 0, i32 3
  store i32 0, ptr %_client_handshake_state, align 8
  %_server_handshake_state = getelementptr inbounds %"class.zmq::ws_engine_t", ptr %this1, i32 0, i32 4
  store i32 0, ptr %_server_handshake_state, align 4
  %_header_name_position = getelementptr inbounds %"class.zmq::ws_engine_t", ptr %this1, i32 0, i32 8
  store i32 0, ptr %_header_name_position, align 4
  %_header_value_position = getelementptr inbounds %"class.zmq::ws_engine_t", ptr %this1, i32 0, i32 10
  store i32 0, ptr %_header_value_position, align 4
  %_header_upgrade_websocket = getelementptr inbounds %"class.zmq::ws_engine_t", ptr %this1, i32 0, i32 11
  store i8 0, ptr %_header_upgrade_websocket, align 8
  %_header_connection_upgrade = getelementptr inbounds %"class.zmq::ws_engine_t", ptr %this1, i32 0, i32 12
  store i8 0, ptr %_header_connection_upgrade, align 1
  %_heartbeat_timeout = getelementptr inbounds %"class.zmq::ws_engine_t", ptr %this1, i32 0, i32 16
  store i32 0, ptr %_heartbeat_timeout, align 4
  %_websocket_key = getelementptr inbounds %"class.zmq::ws_engine_t", ptr %this1, i32 0, i32 14
  %arraydecay = getelementptr inbounds [2049 x i8], ptr %_websocket_key, i64 0, i64 0
  call void @llvm.memset.p0.i64(ptr align 2 %arraydecay, i8 0, i64 2049, i1 false)
  %_websocket_accept = getelementptr inbounds %"class.zmq::ws_engine_t", ptr %this1, i32 0, i32 15
  %arraydecay3 = getelementptr inbounds [2049 x i8], ptr %_websocket_accept, i64 0, i64 0
  call void @llvm.memset.p0.i64(ptr align 1 %arraydecay3, i8 0, i64 2049, i1 false)
  %_websocket_protocol = getelementptr inbounds %"class.zmq::ws_engine_t", ptr %this1, i32 0, i32 13
  %arraydecay4 = getelementptr inbounds [256 x i8], ptr %_websocket_protocol, i64 0, i64 0
  call void @llvm.memset.p0.i64(ptr align 2 %arraydecay4, i8 0, i64 256, i1 false)
  %_next_msg = getelementptr inbounds %"class.zmq::stream_engine_base_t", ptr %this1, i32 0, i32 10
  store { i64, i64 } { i64 ptrtoint (ptr @_ZN3zmq20stream_engine_base_t22next_handshake_commandEPNS_5msg_tE to i64), i64 0 }, ptr %_next_msg, align 8
  %_process_msg = getelementptr inbounds %"class.zmq::stream_engine_base_t", ptr %this1, i32 0, i32 11
  store { i64, i64 } { i64 ptrtoint (ptr @_ZN3zmq20stream_engine_base_t25process_handshake_commandEPNS_5msg_tE to i64), i64 0 }, ptr %_process_msg, align 8
  %_close_msg5 = getelementptr inbounds %"class.zmq::ws_engine_t", ptr %this1, i32 0, i32 17
  %call = invoke noundef i32 @_ZN3zmq5msg_t4initEv(ptr noundef nonnull align 8 dereferenceable(64) %_close_msg5)
          to label %invoke.cont7 unwind label %lpad6

invoke.cont7:                                     ; preds = %invoke.cont
  %_options = getelementptr inbounds %"class.zmq::stream_engine_base_t", ptr %this1, i32 0, i32 2
  %heartbeat_interval = getelementptr inbounds %"struct.zmq::options_t", ptr %_options, i32 0, i32 60
  %5 = load i32, ptr %heartbeat_interval, align 4
  %cmp = icmp sgt i32 %5, 0
  br i1 %cmp, label %if.then, label %if.end16

if.then:                                          ; preds = %invoke.cont7
  %_options8 = getelementptr inbounds %"class.zmq::stream_engine_base_t", ptr %this1, i32 0, i32 2
  %heartbeat_timeout = getelementptr inbounds %"struct.zmq::options_t", ptr %_options8, i32 0, i32 61
  %6 = load i32, ptr %heartbeat_timeout, align 8
  %_heartbeat_timeout9 = getelementptr inbounds %"class.zmq::ws_engine_t", ptr %this1, i32 0, i32 16
  store i32 %6, ptr %_heartbeat_timeout9, align 4
  %_heartbeat_timeout10 = getelementptr inbounds %"class.zmq::ws_engine_t", ptr %this1, i32 0, i32 16
  %7 = load i32, ptr %_heartbeat_timeout10, align 4
  %cmp11 = icmp eq i32 %7, -1
  br i1 %cmp11, label %if.then12, label %if.end

if.then12:                                        ; preds = %if.then
  %_options13 = getelementptr inbounds %"class.zmq::stream_engine_base_t", ptr %this1, i32 0, i32 2
  %heartbeat_interval14 = getelementptr inbounds %"struct.zmq::options_t", ptr %_options13, i32 0, i32 60
  %8 = load i32, ptr %heartbeat_interval14, align 4
  %_heartbeat_timeout15 = getelementptr inbounds %"class.zmq::ws_engine_t", ptr %this1, i32 0, i32 16
  store i32 %8, ptr %_heartbeat_timeout15, align 4
  br label %if.end

lpad:                                             ; preds = %entry
  %9 = landingpad { ptr, i32 }
          cleanup
  %10 = extractvalue { ptr, i32 } %9, 0
  store ptr %10, ptr %exn.slot, align 8
  %11 = extractvalue { ptr, i32 } %9, 1
  store i32 %11, ptr %ehselector.slot, align 4
  br label %ehcleanup

lpad6:                                            ; preds = %invoke.cont
  %12 = landingpad { ptr, i32 }
          cleanup
  %13 = extractvalue { ptr, i32 } %12, 0
  store ptr %13, ptr %exn.slot, align 8
  %14 = extractvalue { ptr, i32 } %12, 1
  store i32 %14, ptr %ehselector.slot, align 4
  call void @_ZN3zmq12ws_address_tD2Ev(ptr noundef nonnull align 8 dereferenceable(96) %_address) #13
  br label %ehcleanup

if.end:                                           ; preds = %if.then12, %if.then
  br label %if.end16

if.end16:                                         ; preds = %if.end, %invoke.cont7
  ret void

ehcleanup:                                        ; preds = %lpad6, %lpad
  call void @_ZN3zmq20stream_engine_base_tD2Ev(ptr noundef nonnull align 8 dereferenceable(1689) %this1) #13
  br label %eh.resume

eh.resume:                                        ; preds = %ehcleanup
  %exn = load ptr, ptr %exn.slot, align 8
  %sel = load i32, ptr %ehselector.slot, align 4
  %lpad.val = insertvalue { ptr, i32 } poison, ptr %exn, 0
  %lpad.val17 = insertvalue { ptr, i32 } %lpad.val, i32 %sel, 1
  resume { ptr, i32 } %lpad.val17
}