; Function Attrs: mustprogress uwtable
define void @_ZN3zmq11ws_engine_tC2EiRKNS_9options_tERKNS_19endpoint_uri_pair_tERKNS_12ws_address_tEb(ptr noundef nonnull align 8 dereferenceable(25696) %this, i32 noundef %fd_, ptr noundef nonnull align 8 dereferenceable(1336) %options_, ptr noundef nonnull align 8 dereferenceable(68) %endpoint_uri_pair_, ptr noundef nonnull align 8 dereferenceable(96) %address_, i1 noundef zeroext %client_) unnamed_addr #0 align 2 personality ptr @__gxx_personality_v0 {
entry:
  %frombool = zext i1 %client_ to i8
  tail call void @_ZN3zmq20stream_engine_base_tC2EiRKNS_9options_tERKNS_19endpoint_uri_pair_tEb(ptr noundef nonnull align 8 dereferenceable(1689) %this, i32 noundef %fd_, ptr noundef nonnull align 8 dereferenceable(1336) %options_, ptr noundef nonnull align 8 dereferenceable(68) %endpoint_uri_pair_, i1 noundef zeroext true)
  store ptr getelementptr inbounds ({ [24 x ptr], [11 x ptr] }, ptr @_ZTVN3zmq11ws_engine_tE, i64 0, i32 0, i64 2), ptr %this, align 8
  %add.ptr = getelementptr inbounds i8, ptr %this, i64 16
  store ptr getelementptr inbounds ({ [24 x ptr], [11 x ptr] }, ptr @_ZTVN3zmq11ws_engine_tE, i64 0, i32 1, i64 2), ptr %add.ptr, align 8
  %_client = getelementptr inbounds i8, ptr %this, i64 1689
  store i8 %frombool, ptr %_client, align 1
  %_address = getelementptr inbounds i8, ptr %this, i64 1696
  tail call void @llvm.memcpy.p0.p0.i64(ptr noundef nonnull align 8 dereferenceable(28) %_address, ptr noundef nonnull align 8 dereferenceable(28) %address_, i64 28, i1 false)
  %_host.i = getelementptr inbounds i8, ptr %this, i64 1728
  %_host3.i = getelementptr inbounds i8, ptr %address_, i64 32
  invoke void @_ZNSt7__cxx1112basic_stringIcSt11char_traitsIcESaIcEEC1ERKS4_(ptr noundef nonnull align 8 dereferenceable(32) %_host.i, ptr noundef nonnull align 8 dereferenceable(32) %_host3.i)
          to label %.noexc unwind label %lpad

.noexc:                                           ; preds = %entry
  %_path.i = getelementptr inbounds i8, ptr %this, i64 1760
  %_path4.i = getelementptr inbounds i8, ptr %address_, i64 64
  invoke void @_ZNSt7__cxx1112basic_stringIcSt11char_traitsIcESaIcEEC1ERKS4_(ptr noundef nonnull align 8 dereferenceable(32) %_path.i, ptr noundef nonnull align 8 dereferenceable(32) %_path4.i)
          to label %invoke.cont unwind label %lpad.i

lpad.i:                                           ; preds = %.noexc
  %0 = landingpad { ptr, i32 }
          cleanup
  tail call void @_ZNSt7__cxx1112basic_stringIcSt11char_traitsIcESaIcEED1Ev(ptr noundef nonnull align 8 dereferenceable(32) %_host.i) #19
  br label %ehcleanup

invoke.cont:                                      ; preds = %.noexc
  %_client_handshake_state = getelementptr inbounds i8, ptr %this, i64 1792
  store i32 0, ptr %_client_handshake_state, align 8
  %_server_handshake_state = getelementptr inbounds i8, ptr %this, i64 1796
  store i32 0, ptr %_server_handshake_state, align 4
  %_header_name_position = getelementptr inbounds i8, ptr %this, i64 19212
  store i32 0, ptr %_header_name_position, align 4
  %_header_value_position = getelementptr inbounds i8, ptr %this, i64 21268
  %_heartbeat_timeout = getelementptr inbounds i8, ptr %this, i64 25628
  %_next_msg = getelementptr inbounds i8, ptr %this, i64 1416
  tail call void @llvm.memset.p0.i64(ptr noundef nonnull align 4 dereferenceable(4364) %_header_value_position, i8 0, i64 4364, i1 false)
  store i64 ptrtoint (ptr @_ZN3zmq20stream_engine_base_t22next_handshake_commandEPNS_5msg_tE to i64), ptr %_next_msg, align 8
  %_next_msg.repack1 = getelementptr inbounds i8, ptr %this, i64 1424
  store i64 0, ptr %_next_msg.repack1, align 8
  %_process_msg = getelementptr inbounds i8, ptr %this, i64 1432
  store i64 ptrtoint (ptr @_ZN3zmq20stream_engine_base_t25process_handshake_commandEPNS_5msg_tE to i64), ptr %_process_msg, align 8
  %_process_msg.repack2 = getelementptr inbounds i8, ptr %this, i64 1440
  store i64 0, ptr %_process_msg.repack2, align 8
  %_close_msg5 = getelementptr inbounds i8, ptr %this, i64 25632
  %call = invoke noundef i32 @_ZN3zmq5msg_t4initEv(ptr noundef nonnull align 8 dereferenceable(64) %_close_msg5)
          to label %invoke.cont7 unwind label %lpad6

invoke.cont7:                                     ; preds = %invoke.cont
  %heartbeat_interval = getelementptr inbounds i8, ptr %this, i64 972
  %1 = load i32, ptr %heartbeat_interval, align 4
  %cmp = icmp sgt i32 %1, 0
  br i1 %cmp, label %if.then, label %if.end16

if.then:                                          ; preds = %invoke.cont7
  %heartbeat_timeout = getelementptr inbounds i8, ptr %this, i64 976
  %2 = load i32, ptr %heartbeat_timeout, align 8
  %cmp11 = icmp eq i32 %2, -1
  %spec.store.select = select i1 %cmp11, i32 %1, i32 %2
  store i32 %spec.store.select, ptr %_heartbeat_timeout, align 4
  br label %if.end16

lpad:                                             ; preds = %entry
  %3 = landingpad { ptr, i32 }
          cleanup
  br label %ehcleanup

lpad6:                                            ; preds = %invoke.cont
  %4 = landingpad { ptr, i32 }
          cleanup
  tail call void @_ZNSt7__cxx1112basic_stringIcSt11char_traitsIcESaIcEED1Ev(ptr noundef nonnull align 8 dereferenceable(32) %_path.i) #19
  tail call void @_ZNSt7__cxx1112basic_stringIcSt11char_traitsIcESaIcEED1Ev(ptr noundef nonnull align 8 dereferenceable(32) %_host.i) #19
  br label %ehcleanup

if.end16:                                         ; preds = %if.then, %invoke.cont7
  ret void

ehcleanup:                                        ; preds = %lpad, %lpad.i, %lpad6
  %.pn = phi { ptr, i32 } [ %4, %lpad6 ], [ %3, %lpad ], [ %0, %lpad.i ]
  tail call void @_ZN3zmq20stream_engine_base_tD2Ev(ptr noundef nonnull align 8 dereferenceable(1689) %this) #19
  resume { ptr, i32 } %.pn
}